target datalayout = "e-m:e-p270:32:32-p271:32:32-p272:64:64-i64:64-i128:128-f80:128-n8:16:32:64-S128"
target triple = "x86_64-pc-linux-gnu"

%struct.FormData_pg_replication_origin = type { i32, %struct.varlena }
%struct.varlena = type { [4 x i8], [0 x i8] }
%struct.HeapTupleData = type { i32, %struct.ItemPointerData, i32, ptr }
%struct.ItemPointerData = type { %struct.BlockIdData, i16 }
%struct.BlockIdData = type { i16, i16 }
%struct.HeapTupleHeaderData = type { %union.anon, %struct.ItemPointerData, i16, i16, i8, [0 x i8] }
%union.anon = type { %struct.HeapTupleFields }
%struct.HeapTupleFields = type { i32, i32, %union.anon.0 }
%union.anon.0 = type { i32 }
%union.LWLockPadded = type { %struct.LWLock, [112 x i8] }
%struct.LWLock = type { i16, %struct.pg_atomic_uint32, %struct.proclist_head }
%struct.pg_atomic_uint32 = type { i32 }
%struct.proclist_head = type { i32, i32 }
%struct.ReplicationState = type { i16, i64, i64, i32, %struct.ConditionVariable, %struct.LWLock }
%struct.ConditionVariable = type { i8, %struct.proclist_head }
%struct.FunctionCallInfoBaseData = type { ptr, ptr, ptr, i32, i8, i16, [0 x %struct.NullableDatum] }
%struct.NullableDatum = type { i64, i8 }
%struct.ReturnSetInfo = type { i32, ptr, ptr, i32, i32, i32, ptr, ptr }

@.str.1 = private unnamed_addr constant [9 x i8] c"origin.c\00", align 1
@.str.4 = private unnamed_addr constant [45 x i8] c"replication origin with ID %d does not exist\00", align 1
@__func__.replorigin_by_oid = private unnamed_addr constant [18 x i8] c"replorigin_by_oid\00", align 1
@max_replication_slots = external global i32, align 4
@replication_states = internal global ptr null, align 8
@MainLWLockArray = external global ptr, align 8
@.str.32 = private unnamed_addr constant [80 x i8] c"cannot query or manipulate replication origin when \22max_replication_slots\22 is 0\00", align 1
@__func__.replorigin_check_prerequisites = private unnamed_addr constant [31 x i8] c"replorigin_check_prerequisites\00", align 1
@.str.33 = private unnamed_addr constant [54 x i8] c"cannot manipulate replication origins during recovery\00", align 1

; Function Attrs: inlinehint nounwind uwtable
define internal i64 @Int64GetDatum(i64 noundef %0) #2 {
  %2 = alloca i64, align 8
  store i64 %0, ptr %2, align 8
  %3 = load i64, ptr %2, align 8
  ret i64 %3
}

; Function Attrs: inlinehint nounwind uwtable
define internal ptr @GETSTRUCT(ptr noundef %0) #2 {
  %2 = alloca ptr, align 8
  store ptr %0, ptr %2, align 8
  %3 = load ptr, ptr %2, align 8
  %4 = getelementptr inbounds nuw %struct.HeapTupleData, ptr %3, i32 0, i32 3
  %5 = load ptr, ptr %4, align 8
  %6 = load ptr, ptr %2, align 8
  %7 = getelementptr inbounds nuw %struct.HeapTupleData, ptr %6, i32 0, i32 3
  %8 = load ptr, ptr %7, align 8
  %9 = getelementptr inbounds nuw %struct.HeapTupleHeaderData, ptr %8, i32 0, i32 4
  %10 = load i8, ptr %9, align 2
  %11 = zext i8 %10 to i32
  %12 = sext i32 %11 to i64
  %13 = getelementptr inbounds i8, ptr %5, i64 %12
  ret ptr %13
}

; Function Attrs: inlinehint nounwind uwtable
define internal i64 @LSNGetDatum(i64 noundef %0) #2 {
  %2 = alloca i64, align 8
  store i64 %0, ptr %2, align 8
  %3 = load i64, ptr %2, align 8
  %4 = call i64 @Int64GetDatum(i64 noundef %3)
  ret i64 %4
}

; Function Attrs: inlinehint nounwind uwtable
define internal i64 @PointerGetDatum(ptr noundef %0) #2 {
  %2 = alloca ptr, align 8
  store ptr %0, ptr %2, align 8
  %3 = load ptr, ptr %2, align 8
  %4 = ptrtoint ptr %3 to i64
  ret i64 %4
}

; Function Attrs: nounwind uwtable
define dso_local zeroext i1 @replorigin_by_oid(i16 noundef zeroext %0, i1 noundef zeroext %1, ptr noundef %2) #0 {
  %4 = alloca i1, align 1
  %5 = alloca i16, align 2
  %6 = alloca i8, align 1
  %7 = alloca ptr, align 8
  %8 = alloca ptr, align 8
  %9 = alloca ptr, align 8
  %10 = alloca i32, align 4
  store i16 %0, ptr %5, align 2
  %11 = zext i1 %1 to i8
  store i8 %11, ptr %6, align 1
  store ptr %2, ptr %7, align 8
  call void @llvm.lifetime.start.p0(i64 8, ptr %8) #9
  call void @llvm.lifetime.start.p0(i64 8, ptr %9) #9
  %12 = load i16, ptr %5, align 2
  %13 = zext i16 %12 to i32
  %14 = call i64 @ObjectIdGetDatum(i32 noundef %13)
  %15 = call ptr @SearchSysCache1(i32 noundef 58, i64 noundef %14)
  store ptr %15, ptr %8, align 8
  %16 = load ptr, ptr %8, align 8
  %17 = icmp ne ptr %16, null
  br i1 %17, label %18, label %26

18:                                               ; preds = %3
  %19 = load ptr, ptr %8, align 8
  %20 = call ptr @GETSTRUCT(ptr noundef %19)
  store ptr %20, ptr %9, align 8
  %21 = load ptr, ptr %9, align 8
  %22 = getelementptr inbounds nuw %struct.FormData_pg_replication_origin, ptr %21, i32 0, i32 1
  %23 = call ptr @text_to_cstring(ptr noundef %22)
  %24 = load ptr, ptr %7, align 8
  store ptr %23, ptr %24, align 8
  %25 = load ptr, ptr %8, align 8
  call void @ReleaseSysCache(ptr noundef %25)
  store i1 true, ptr %4, align 1
  store i32 1, ptr %10, align 4
  br label %45

26:                                               ; preds = %3
  %27 = load ptr, ptr %7, align 8
  store ptr null, ptr %27, align 8
  %28 = load i8, ptr %6, align 1, !range !4, !noundef !5
  %29 = trunc i8 %28 to i1
  br i1 %29, label %44, label %30

30:                                               ; preds = %26
  br label %31

31:                                               ; preds = %30
  br i1 true, label %32, label %34

32:                                               ; preds = %31
  %33 = call zeroext i1 @errstart_cold(i32 noundef 21, ptr noundef null) #10
  br i1 %33, label %36, label %41

34:                                               ; preds = %31
  %35 = call zeroext i1 @errstart(i32 noundef 21, ptr noundef null)
  br i1 %35, label %36, label %41

36:                                               ; preds = %34, %32
  %37 = call i32 @errcode(i32 noundef 67137668)
  %38 = load i16, ptr %5, align 2
  %39 = zext i16 %38 to i32
  %40 = call i32 (ptr, ...) @errmsg(ptr noundef @.str.4, i32 noundef %39)
  call void @errfinish(ptr noundef @.str.1, i32 noundef 497, ptr noundef @__func__.replorigin_by_oid)
  br label %41

41:                                               ; preds = %36, %34, %32
  unreachable

42:                                               ; No predecessors!
  br label %43

43:                                               ; preds = %42
  br label %44

44:                                               ; preds = %43, %26
  store i1 false, ptr %4, align 1
  store i32 1, ptr %10, align 4
  br label %45

45:                                               ; preds = %44, %18
  call void @llvm.lifetime.end.p0(i64 8, ptr %9) #9
  call void @llvm.lifetime.end.p0(i64 8, ptr %8) #9
  %46 = load i1, ptr %4, align 1
  ret i1 %46
}

; Function Attrs: inlinehint nounwind uwtable
define internal i64 @ObjectIdGetDatum(i32 noundef %0) #2 {
  %2 = alloca i32, align 4
  store i32 %0, ptr %2, align 4
  %3 = load i32, ptr %2, align 4
  %4 = zext i32 %3 to i64
  ret i64 %4
}

; Function Attrs: nounwind uwtable
define internal void @replorigin_check_prerequisites(i1 noundef zeroext %0, i1 noundef zeroext %1) #0 {
  %3 = alloca i8, align 1
  %4 = alloca i8, align 1
  %5 = zext i1 %0 to i8
  store i8 %5, ptr %3, align 1
  %6 = zext i1 %1 to i8
  store i8 %6, ptr %4, align 1
  %7 = load i8, ptr %3, align 1, !range !4, !noundef !5
  %8 = trunc i8 %7 to i1
  br i1 %8, label %9, label %23

9:                                                ; preds = %2
  %10 = load i32, ptr @max_replication_slots, align 4
  %11 = icmp eq i32 %10, 0
  br i1 %11, label %12, label %23

12:                                               ; preds = %9
  br label %13

13:                                               ; preds = %12
  br i1 true, label %14, label %16

14:                                               ; preds = %13
  %15 = call zeroext i1 @errstart_cold(i32 noundef 21, ptr noundef null) #10
  br i1 %15, label %18, label %21

16:                                               ; preds = %13
  %17 = call zeroext i1 @errstart(i32 noundef 21, ptr noundef null)
  br i1 %17, label %18, label %21

18:                                               ; preds = %16, %14
  %19 = call i32 @errcode(i32 noundef 325)
  %20 = call i32 (ptr, ...) @errmsg(ptr noundef @.str.32)
  call void @errfinish(ptr noundef @.str.1, i32 noundef 194, ptr noundef @__func__.replorigin_check_prerequisites)
  br label %21

21:                                               ; preds = %18, %16, %14
  unreachable

22:                                               ; No predecessors!
  br label %23

23:                                               ; preds = %22, %9, %2
  %24 = load i8, ptr %4, align 1, !range !4, !noundef !5
  %25 = trunc i8 %24 to i1
  br i1 %25, label %39, label %26

26:                                               ; preds = %23
  %27 = call zeroext i1 @RecoveryInProgress()
  br i1 %27, label %28, label %39

28:                                               ; preds = %26
  br label %29

29:                                               ; preds = %28
  br i1 true, label %30, label %32

30:                                               ; preds = %29
  %31 = call zeroext i1 @errstart_cold(i32 noundef 21, ptr noundef null) #10
  br i1 %31, label %34, label %37

32:                                               ; preds = %29
  %33 = call zeroext i1 @errstart(i32 noundef 21, ptr noundef null)
  br i1 %33, label %34, label %37

34:                                               ; preds = %32, %30
  %35 = call i32 @errcode(i32 noundef 100663618)
  %36 = call i32 (ptr, ...) @errmsg(ptr noundef @.str.33)
  call void @errfinish(ptr noundef @.str.1, i32 noundef 199, ptr noundef @__func__.replorigin_check_prerequisites)
  br label %37

37:                                               ; preds = %34, %32, %30
  unreachable

38:                                               ; No predecessors!
  br label %39

39:                                               ; preds = %38, %26, %23
  ret void
}

; Function Attrs: nounwind uwtable
define dso_local i64 @pg_show_replication_origin_status(ptr noundef %0) #0 {
  %2 = alloca ptr, align 8
  %3 = alloca ptr, align 8
  %4 = alloca i32, align 4
  %5 = alloca ptr, align 8
  %6 = alloca [4 x i64], align 16
  %7 = alloca [4 x i8], align 1
  %8 = alloca ptr, align 8
  %9 = alloca i32, align 4
  store ptr %0, ptr %2, align 8
  call void @llvm.lifetime.start.p0(i64 8, ptr %3) #9
  %10 = load ptr, ptr %2, align 8
  %11 = getelementptr inbounds nuw %struct.FunctionCallInfoBaseData, ptr %10, i32 0, i32 2
  %12 = load ptr, ptr %11, align 8
  store ptr %12, ptr %3, align 8
  call void @llvm.lifetime.start.p0(i64 4, ptr %4) #9
  call void @replorigin_check_prerequisites(i1 noundef zeroext false, i1 noundef zeroext true)
  %13 = load ptr, ptr %2, align 8
  call void @InitMaterializedSRF(ptr noundef %13, i32 noundef 0)
  %14 = load ptr, ptr @MainLWLockArray, align 8
  %15 = getelementptr inbounds %union.LWLockPadded, ptr %14, i64 40
  %16 = call zeroext i1 @LWLockAcquire(ptr noundef %15, i32 noundef 1)
  store i32 0, ptr %4, align 4
  br label %17

17:                                               ; preds = %81, %1
  %18 = load i32, ptr %4, align 4
  %19 = load i32, ptr @max_replication_slots, align 4
  %20 = icmp slt i32 %18, %19
  br i1 %20, label %21, label %84

21:                                               ; preds = %17
  call void @llvm.lifetime.start.p0(i64 8, ptr %5) #9
  call void @llvm.lifetime.start.p0(i64 32, ptr %6) #9
  call void @llvm.lifetime.start.p0(i64 4, ptr %7) #9
  call void @llvm.lifetime.start.p0(i64 8, ptr %8) #9
  %22 = load ptr, ptr @replication_states, align 8
  %23 = load i32, ptr %4, align 4
  %24 = sext i32 %23 to i64
  %25 = getelementptr inbounds %struct.ReplicationState, ptr %22, i64 %24
  store ptr %25, ptr %5, align 8
  %26 = load ptr, ptr %5, align 8
  %27 = getelementptr inbounds nuw %struct.ReplicationState, ptr %26, i32 0, i32 0
  %28 = load i16, ptr %27, align 8
  %29 = zext i16 %28 to i32
  %30 = icmp eq i32 %29, 0
  br i1 %30, label %31, label %32

31:                                               ; preds = %21
  store i32 4, ptr %9, align 4
  br label %78

32:                                               ; preds = %21
  %33 = getelementptr inbounds [4 x i64], ptr %6, i64 0, i64 0
  call void @llvm.memset.p0.i64(ptr align 16 %33, i8 0, i64 32, i1 false)
  %34 = getelementptr inbounds [4 x i8], ptr %7, i64 0, i64 0
  call void @llvm.memset.p0.i64(ptr align 1 %34, i8 1, i64 4, i1 false)
  %35 = load ptr, ptr %5, align 8
  %36 = getelementptr inbounds nuw %struct.ReplicationState, ptr %35, i32 0, i32 0
  %37 = load i16, ptr %36, align 8
  %38 = zext i16 %37 to i32
  %39 = call i64 @ObjectIdGetDatum(i32 noundef %38)
  %40 = getelementptr inbounds [4 x i64], ptr %6, i64 0, i64 0
  store i64 %39, ptr %40, align 16
  %41 = getelementptr inbounds [4 x i8], ptr %7, i64 0, i64 0
  store i8 0, ptr %41, align 1
  %42 = load ptr, ptr %5, align 8
  %43 = getelementptr inbounds nuw %struct.ReplicationState, ptr %42, i32 0, i32 0
  %44 = load i16, ptr %43, align 8
  %45 = call zeroext i1 @replorigin_by_oid(i16 noundef zeroext %44, i1 noundef zeroext true, ptr noundef %8)
  br i1 %45, label %46, label %52

46:                                               ; preds = %32
  %47 = load ptr, ptr %8, align 8
  %48 = call ptr @cstring_to_text(ptr noundef %47)
  %49 = call i64 @PointerGetDatum(ptr noundef %48)
  %50 = getelementptr inbounds [4 x i64], ptr %6, i64 0, i64 1
  store i64 %49, ptr %50, align 8
  %51 = getelementptr inbounds [4 x i8], ptr %7, i64 0, i64 1
  store i8 0, ptr %51, align 1
  br label %52

52:                                               ; preds = %46, %32
  %53 = load ptr, ptr %5, align 8
  %54 = getelementptr inbounds nuw %struct.ReplicationState, ptr %53, i32 0, i32 5
  %55 = call zeroext i1 @LWLockAcquire(ptr noundef %54, i32 noundef 1)
  %56 = load ptr, ptr %5, align 8
  %57 = getelementptr inbounds nuw %struct.ReplicationState, ptr %56, i32 0, i32 1
  %58 = load i64, ptr %57, align 8
  %59 = call i64 @LSNGetDatum(i64 noundef %58)
  %60 = getelementptr inbounds [4 x i64], ptr %6, i64 0, i64 2
  store i64 %59, ptr %60, align 16
  %61 = getelementptr inbounds [4 x i8], ptr %7, i64 0, i64 2
  store i8 0, ptr %61, align 1
  %62 = load ptr, ptr %5, align 8
  %63 = getelementptr inbounds nuw %struct.ReplicationState, ptr %62, i32 0, i32 2
  %64 = load i64, ptr %63, align 8
  %65 = call i64 @LSNGetDatum(i64 noundef %64)
  %66 = getelementptr inbounds [4 x i64], ptr %6, i64 0, i64 3
  store i64 %65, ptr %66, align 8
  %67 = getelementptr inbounds [4 x i8], ptr %7, i64 0, i64 3
  store i8 0, ptr %67, align 1
  %68 = load ptr, ptr %5, align 8
  %69 = getelementptr inbounds nuw %struct.ReplicationState, ptr %68, i32 0, i32 5
  call void @LWLockRelease(ptr noundef %69)
  %70 = load ptr, ptr %3, align 8
  %71 = getelementptr inbounds nuw %struct.ReturnSetInfo, ptr %70, i32 0, i32 6
  %72 = load ptr, ptr %71, align 8
  %73 = load ptr, ptr %3, align 8
  %74 = getelementptr inbounds nuw %struct.ReturnSetInfo, ptr %73, i32 0, i32 7
  %75 = load ptr, ptr %74, align 8
  %76 = getelementptr inbounds [4 x i64], ptr %6, i64 0, i64 0
  %77 = getelementptr inbounds [4 x i8], ptr %7, i64 0, i64 0
  call void @tuplestore_putvalues(ptr noundef %72, ptr noundef %75, ptr noundef %76, ptr noundef %77)
  store i32 0, ptr %9, align 4
  br label %78

78:                                               ; preds = %52, %31
  call void @llvm.lifetime.end.p0(i64 8, ptr %8) #9
  call void @llvm.lifetime.end.p0(i64 4, ptr %7) #9
  call void @llvm.lifetime.end.p0(i64 32, ptr %6) #9
  call void @llvm.lifetime.end.p0(i64 8, ptr %5) #9
  %79 = load i32, ptr %9, align 4
  switch i32 %79, label %87 [
    i32 0, label %80
    i32 4, label %81
  ]

80:                                               ; preds = %78
  br label %81

81:                                               ; preds = %80, %78
  %82 = load i32, ptr %4, align 4
  %83 = add i32 %82, 1
  store i32 %83, ptr %4, align 4
  br label %17, !llvm.loop !16

84:                                               ; preds = %17
  %85 = load ptr, ptr @MainLWLockArray, align 8
  %86 = getelementptr inbounds %union.LWLockPadded, ptr %85, i64 40
  call void @LWLockRelease(ptr noundef %86)
  store i32 1, ptr %9, align 4
  call void @llvm.lifetime.end.p0(i64 4, ptr %4) #9
  call void @llvm.lifetime.end.p0(i64 8, ptr %3) #9
  ret i64 0

87:                                               ; preds = %78
  unreachable
}