; Function Attrs: nounwind uwtable
define dso_local noundef i64 @pg_show_replication_origin_status(ptr noundef %0) local_unnamed_addr #0 {
  %2 = alloca [4 x i64], align 16
  %3 = alloca [4 x i8], align 4
  %4 = getelementptr inbounds nuw i8, ptr %0, i64 16
  %5 = load ptr, ptr %4, align 8
  tail call void @InitMaterializedSRF(ptr noundef %0, i32 noundef 0) #10
  %6 = load ptr, ptr @MainLWLockArray, align 8
  %7 = getelementptr inbounds nuw i8, ptr %6, i64 5120
  %8 = tail call zeroext i1 @LWLockAcquire(ptr noundef nonnull %7, i32 noundef 1) #10
  %9 = load i32, ptr @max_replication_slots, align 4
  %10 = icmp sgt i32 %9, 0
  br i1 %10, label %.lr.ph, label %._crit_edge

.lr.ph:                                           ; preds = %1
  %11 = getelementptr inbounds nuw i8, ptr %2, i64 8
  %12 = getelementptr inbounds nuw i8, ptr %3, i64 1
  %13 = getelementptr inbounds nuw i8, ptr %2, i64 16
  %14 = getelementptr inbounds nuw i8, ptr %3, i64 2
  %15 = getelementptr inbounds nuw i8, ptr %2, i64 24
  %16 = getelementptr inbounds nuw i8, ptr %3, i64 3
  %17 = getelementptr inbounds nuw i8, ptr %5, i64 40
  %18 = getelementptr inbounds nuw i8, ptr %5, i64 48
  %.pre18 = load ptr, ptr @replication_states, align 8
  br label %19

19:                                               ; preds = %.lr.ph, %49
  %20 = phi i32 [ %9, %.lr.ph ], [ %50, %49 ]
  %21 = phi ptr [ %.pre18, %.lr.ph ], [ %51, %49 ]
  %indvars.iv = phi i64 [ 0, %.lr.ph ], [ %indvars.iv.next, %49 ]
  call void @llvm.lifetime.start.p0(i64 32, ptr nonnull %2) #10
  call void @llvm.lifetime.start.p0(i64 4, ptr nonnull %3) #10
  %22 = getelementptr inbounds nuw %struct.ReplicationState, ptr %21, i64 %indvars.iv
  %23 = load i16, ptr %22, align 8
  %24 = icmp eq i16 %23, 0
  br i1 %24, label %49, label %25

25:                                               ; preds = %19
  call void @llvm.memset.p0.i64(ptr noundef nonnull align 16 dereferenceable(32) %2, i8 0, i64 32, i1 false)
  store i32 16843009, ptr %3, align 4
  %26 = load i16, ptr %22, align 8
  %27 = zext i16 %26 to i64
  store i64 %27, ptr %2, align 16
  store i8 0, ptr %3, align 4
  %28 = load i16, ptr %22, align 8
  %29 = zext i16 %28 to i64
  %30 = call ptr @SearchSysCache1(i32 noundef 58, i64 noundef %29) #10
  %.not.i.not = icmp eq ptr %30, null
  br i1 %.not.i.not, label %replorigin_by_oid.exit, label %31

31:                                               ; preds = %25
  %32 = getelementptr i8, ptr %30, i64 16
  %.val.i = load ptr, ptr %32, align 8
  %33 = getelementptr inbounds nuw i8, ptr %.val.i, i64 22
  %34 = load i8, ptr %33, align 2
  %35 = zext i8 %34 to i64
  %36 = getelementptr inbounds nuw i8, ptr %.val.i, i64 %35
  %37 = getelementptr inbounds nuw i8, ptr %36, i64 4
  %38 = call ptr @text_to_cstring(ptr noundef nonnull %37) #10
  call void @ReleaseSysCache(ptr noundef nonnull %30) #10
  %39 = call ptr @cstring_to_text(ptr noundef %38) #10
  %40 = ptrtoint ptr %39 to i64
  store i64 %40, ptr %11, align 8
  store i8 0, ptr %12, align 1
  br label %replorigin_by_oid.exit

replorigin_by_oid.exit:                           ; preds = %25, %31
  %41 = getelementptr inbounds nuw i8, ptr %22, i64 40
  %42 = call zeroext i1 @LWLockAcquire(ptr noundef nonnull %41, i32 noundef 1) #10
  %43 = getelementptr inbounds nuw i8, ptr %22, i64 8
  %44 = load i64, ptr %43, align 8
  store i64 %44, ptr %13, align 16
  store i8 0, ptr %14, align 2
  %45 = getelementptr inbounds nuw i8, ptr %22, i64 16
  %46 = load i64, ptr %45, align 8
  store i64 %46, ptr %15, align 8
  store i8 0, ptr %16, align 1
  call void @LWLockRelease(ptr noundef nonnull %41) #10
  %47 = load ptr, ptr %17, align 8
  %48 = load ptr, ptr %18, align 8
  call void @tuplestore_putvalues(ptr noundef %47, ptr noundef %48, ptr noundef nonnull %2, ptr noundef nonnull %3) #10
  %.pre = load ptr, ptr @replication_states, align 8
  %.pre19 = load i32, ptr @max_replication_slots, align 4
  br label %49

49:                                               ; preds = %19, %replorigin_by_oid.exit
  %50 = phi i32 [ %20, %19 ], [ %.pre19, %replorigin_by_oid.exit ]
  %51 = phi ptr [ %21, %19 ], [ %.pre, %replorigin_by_oid.exit ]
  call void @llvm.lifetime.end.p0(i64 4, ptr nonnull %3) #10
  call void @llvm.lifetime.end.p0(i64 32, ptr nonnull %2) #10
  %indvars.iv.next = add nuw nsw i64 %indvars.iv, 1
  %52 = sext i32 %50 to i64
  %53 = icmp slt i64 %indvars.iv.next, %52
  br i1 %53, label %19, label %._crit_edge, !llvm.loop !16

._crit_edge:                                      ; preds = %49, %1
  %54 = load ptr, ptr @MainLWLockArray, align 8
  %55 = getelementptr inbounds nuw i8, ptr %54, i64 5120
  call void @LWLockRelease(ptr noundef nonnull %55) #10
  ret i64 0
}